; ModuleID = 'source-C-CXX/25/630.cpp'
source_filename = "source-C-CXX/25/630.cpp"
target datalayout = "e-m:e-p270:32:32-p271:32:32-p272:64:64-i64:64-f80:128-n8:16:32:64-S128"
target triple = "x86_64-pc-linux-gnu"

%"class.std::ios_base::Init" = type { i8 }
%"class.std::basic_istream" = type { i32 (...)**, i64, %"class.std::basic_ios" }
%"class.std::basic_ios" = type { %"class.std::ios_base", %"class.std::basic_ostream"*, i8, i8, %"class.std::basic_streambuf"*, %"class.std::ctype"*, %"class.std::num_put"*, %"class.std::num_get"* }
%"class.std::ios_base" = type { i32 (...)**, i64, i64, i32, i32, i32, %"struct.std::ios_base::_Callback_list"*, %"struct.std::ios_base::_Words", [8 x %"struct.std::ios_base::_Words"], i32, %"struct.std::ios_base::_Words"*, %"class.std::locale" }
%"struct.std::ios_base::_Callback_list" = type { %"struct.std::ios_base::_Callback_list"*, void (i32, %"class.std::ios_base"*, i32)*, i32, i32 }
%"struct.std::ios_base::_Words" = type { i8*, i64 }
%"class.std::locale" = type { %"class.std::locale::_Impl"* }
%"class.std::locale::_Impl" = type { i32, %"class.std::locale::facet"**, i64, %"class.std::locale::facet"**, i8** }
%"class.std::locale::facet" = type <{ i32 (...)**, i32, [4 x i8] }>
%"class.std::basic_ostream" = type { i32 (...)**, %"class.std::basic_ios" }
%"class.std::basic_streambuf" = type { i32 (...)**, i8*, i8*, i8*, i8*, i8*, i8*, %"class.std::locale" }
%"class.std::ctype" = type <{ %"class.std::locale::facet.base", [4 x i8], %struct.__locale_struct*, i8, [7 x i8], i32*, i32*, i16*, i8, [256 x i8], [256 x i8], i8, [6 x i8] }>
%"class.std::locale::facet.base" = type <{ i32 (...)**, i32 }>
%struct.__locale_struct = type { [13 x %struct.__locale_data*], i16*, i32*, i32*, [13 x i8*] }
%struct.__locale_data = type opaque
%"class.std::num_put" = type { %"class.std::locale::facet.base", [4 x i8] }
%"class.std::num_get" = type { %"class.std::locale::facet.base", [4 x i8] }

@_ZStL8__ioinit = internal global %"class.std::ios_base::Init" zeroinitializer, align 1
@__dso_handle = external hidden global i8
@_ZSt3cin = external global %"class.std::basic_istream", align 8
@_ZSt4cout = external global %"class.std::basic_ostream", align 8
@llvm.global_ctors = appending global [1 x { i32, void ()*, i8* }] [{ i32, void ()*, i8* } { i32 65535, void ()* @_GLOBAL__sub_I_630.cpp, i8* null }]

declare void @_ZNSt8ios_base4InitC1Ev(%"class.std::ios_base::Init"* nonnull align 1 dereferenceable(1)) unnamed_addr #0

; Function Attrs: nounwind
declare void @_ZNSt8ios_base4InitD1Ev(%"class.std::ios_base::Init"* nonnull align 1 dereferenceable(1)) unnamed_addr #1

; Function Attrs: nofree nounwind
declare i32 @__cxa_atexit(void (i8*)*, i8*, i8*) local_unnamed_addr #2

; Function Attrs: mustprogress norecurse sspstrong uwtable
define dso_local i32 @main() local_unnamed_addr #3 {
  %1 = alloca i8, align 1
  %2 = alloca [100 x i8], align 16
  %3 = getelementptr inbounds [100 x i8], [100 x i8]* %2, i64 0, i64 0
  call void @llvm.lifetime.start.p0i8(i64 100, i8* nonnull %3) #8
  %4 = load i8*, i8** bitcast (%"class.std::basic_istream"* @_ZSt3cin to i8**), align 8, !tbaa !5
  %5 = getelementptr i8, i8* %4, i64 -24
  %6 = bitcast i8* %5 to i64*
  %7 = load i64, i64* %6, align 8
  %8 = add nsw i64 %7, 240
  %9 = getelementptr inbounds i8, i8* bitcast (%"class.std::basic_istream"* @_ZSt3cin to i8*), i64 %8
  %10 = bitcast i8* %9 to %"class.std::ctype"**
  %11 = load %"class.std::ctype"*, %"class.std::ctype"** %10, align 8, !tbaa !8
  %12 = icmp eq %"class.std::ctype"* %11, null
  br i1 %12, label %13, label %14

13:                                               ; preds = %0
  tail call void @_ZSt16__throw_bad_castv() #9
  unreachable

14:                                               ; preds = %0
  %15 = getelementptr inbounds %"class.std::ctype", %"class.std::ctype"* %11, i64 0, i32 8
  %16 = load i8, i8* %15, align 8, !tbaa !13
  %17 = icmp eq i8 %16, 0
  br i1 %17, label %21, label %18

18:                                               ; preds = %14
  %19 = getelementptr inbounds %"class.std::ctype", %"class.std::ctype"* %11, i64 0, i32 9, i64 10
  %20 = load i8, i8* %19, align 1, !tbaa !15
  br label %27

21:                                               ; preds = %14
  tail call void @_ZNKSt5ctypeIcE13_M_widen_initEv(%"class.std::ctype"* nonnull align 8 dereferenceable(570) %11)
  %22 = bitcast %"class.std::ctype"* %11 to i8 (%"class.std::ctype"*, i8)***
  %23 = load i8 (%"class.std::ctype"*, i8)**, i8 (%"class.std::ctype"*, i8)*** %22, align 8, !tbaa !5
  %24 = getelementptr inbounds i8 (%"class.std::ctype"*, i8)*, i8 (%"class.std::ctype"*, i8)** %23, i64 6
  %25 = load i8 (%"class.std::ctype"*, i8)*, i8 (%"class.std::ctype"*, i8)** %24, align 8
  %26 = tail call signext i8 %25(%"class.std::ctype"* nonnull align 8 dereferenceable(570) %11, i8 signext 10)
  br label %27

27:                                               ; preds = %18, %21
  %28 = phi i8 [ %20, %18 ], [ %26, %21 ]
  %29 = call nonnull align 8 dereferenceable(16) %"class.std::basic_istream"* @_ZNSi7getlineEPclc(%"class.std::basic_istream"* nonnull align 8 dereferenceable(16) @_ZSt3cin, i8* nonnull %3, i64 100, i8 signext %28)
  %30 = call i64 @strlen(i8* noundef nonnull %3) #10
  %31 = trunc i64 %30 to i32
  %32 = icmp sgt i32 %31, 0
  br i1 %32, label %37, label %164

33:                                               ; preds = %152
  %34 = icmp sgt i32 %153, 0
  br i1 %34, label %35, label %164

35:                                               ; preds = %33
  %36 = zext i32 %153 to i64
  br label %157

37:                                               ; preds = %27, %152
  %38 = phi i32 [ %155, %152 ], [ 0, %27 ]
  %39 = phi i32 [ %153, %152 ], [ %31, %27 ]
  %40 = sext i32 %38 to i64
  %41 = getelementptr inbounds [100 x i8], [100 x i8]* %2, i64 0, i64 %40
  %42 = load i8, i8* %41, align 1, !tbaa !15
  %43 = icmp eq i8 %42, 32
  br i1 %43, label %44, label %152

44:                                               ; preds = %37
  %45 = add nsw i32 %38, -1
  %46 = sext i32 %45 to i64
  %47 = getelementptr inbounds [100 x i8], [100 x i8]* %2, i64 0, i64 %46
  %48 = load i8, i8* %47, align 1, !tbaa !15
  %49 = icmp eq i8 %48, 32
  br i1 %49, label %50, label %152

50:                                               ; preds = %44
  %51 = add nsw i32 %39, -2
  %52 = icmp sgt i32 %38, %51
  %53 = add nsw i32 %39, -1
  br i1 %52, label %152, label %54

54:                                               ; preds = %50
  %55 = sext i32 %53 to i64
  %56 = sub nsw i64 %55, %40
  %57 = icmp ult i64 %56, 8
  br i1 %57, label %143, label %58

58:                                               ; preds = %54
  %59 = icmp ult i64 %56, 32
  br i1 %59, label %122, label %60

60:                                               ; preds = %58
  %61 = and i64 %56, -32
  %62 = add nsw i64 %61, -32
  %63 = lshr exact i64 %62, 5
  %64 = add nuw nsw i64 %63, 1
  %65 = and i64 %64, 1
  %66 = icmp eq i64 %62, 0
  br i1 %66, label %100, label %67

67:                                               ; preds = %60
  %68 = and i64 %64, 1152921504606846974
  br label %69

69:                                               ; preds = %69, %67
  %70 = phi i64 [ 0, %67 ], [ %97, %69 ]
  %71 = phi i64 [ %68, %67 ], [ %98, %69 ]
  %72 = add i64 %70, %40
  %73 = add nsw i64 %72, 1
  %74 = getelementptr inbounds [100 x i8], [100 x i8]* %2, i64 0, i64 %73
  %75 = bitcast i8* %74 to <16 x i8>*
  %76 = load <16 x i8>, <16 x i8>* %75, align 1, !tbaa !15
  %77 = getelementptr inbounds i8, i8* %74, i64 16
  %78 = bitcast i8* %77 to <16 x i8>*
  %79 = load <16 x i8>, <16 x i8>* %78, align 1, !tbaa !15
  %80 = getelementptr inbounds [100 x i8], [100 x i8]* %2, i64 0, i64 %72
  %81 = bitcast i8* %80 to <16 x i8>*
  store <16 x i8> %76, <16 x i8>* %81, align 1, !tbaa !15
  %82 = getelementptr inbounds i8, i8* %80, i64 16
  %83 = bitcast i8* %82 to <16 x i8>*
  store <16 x i8> %79, <16 x i8>* %83, align 1, !tbaa !15
  %84 = or i64 %70, 32
  %85 = add i64 %84, %40
  %86 = add nsw i64 %85, 1
  %87 = getelementptr inbounds [100 x i8], [100 x i8]* %2, i64 0, i64 %86
  %88 = bitcast i8* %87 to <16 x i8>*
  %89 = load <16 x i8>, <16 x i8>* %88, align 1, !tbaa !15
  %90 = getelementptr inbounds i8, i8* %87, i64 16
  %91 = bitcast i8* %90 to <16 x i8>*
  %92 = load <16 x i8>, <16 x i8>* %91, align 1, !tbaa !15
  %93 = getelementptr inbounds [100 x i8], [100 x i8]* %2, i64 0, i64 %85
  %94 = bitcast i8* %93 to <16 x i8>*
  store <16 x i8> %89, <16 x i8>* %94, align 1, !tbaa !15
  %95 = getelementptr inbounds i8, i8* %93, i64 16
  %96 = bitcast i8* %95 to <16 x i8>*
  store <16 x i8> %92, <16 x i8>* %96, align 1, !tbaa !15
  %97 = add nuw i64 %70, 64
  %98 = add i64 %71, -2
  %99 = icmp eq i64 %98, 0
  br i1 %99, label %100, label %69, !llvm.loop !16

100:                                              ; preds = %69, %60
  %101 = phi i64 [ 0, %60 ], [ %97, %69 ]
  %102 = icmp eq i64 %65, 0
  br i1 %102, label %116, label %103

103:                                              ; preds = %100
  %104 = add i64 %101, %40
  %105 = add nsw i64 %104, 1
  %106 = getelementptr inbounds [100 x i8], [100 x i8]* %2, i64 0, i64 %105
  %107 = bitcast i8* %106 to <16 x i8>*
  %108 = load <16 x i8>, <16 x i8>* %107, align 1, !tbaa !15
  %109 = getelementptr inbounds i8, i8* %106, i64 16
  %110 = bitcast i8* %109 to <16 x i8>*
  %111 = load <16 x i8>, <16 x i8>* %110, align 1, !tbaa !15
  %112 = getelementptr inbounds [100 x i8], [100 x i8]* %2, i64 0, i64 %104
  %113 = bitcast i8* %112 to <16 x i8>*
  store <16 x i8> %108, <16 x i8>* %113, align 1, !tbaa !15
  %114 = getelementptr inbounds i8, i8* %112, i64 16
  %115 = bitcast i8* %114 to <16 x i8>*
  store <16 x i8> %111, <16 x i8>* %115, align 1, !tbaa !15
  br label %116

116:                                              ; preds = %100, %103
  %117 = icmp eq i64 %56, %61
  br i1 %117, label %152, label %118

118:                                              ; preds = %116
  %119 = add nsw i64 %61, %40
  %120 = and i64 %56, 24
  %121 = icmp eq i64 %120, 0
  br i1 %121, label %143, label %122

122:                                              ; preds = %58, %118
  %123 = phi i64 [ %61, %118 ], [ 0, %58 ]
  %124 = add i32 %39, -1
  %125 = sext i32 %124 to i64
  %126 = sext i32 %38 to i64
  %127 = sub nsw i64 %125, %126
  %128 = and i64 %127, -8
  %129 = add nsw i64 %128, %40
  br label %130

130:                                              ; preds = %130, %122
  %131 = phi i64 [ %123, %122 ], [ %139, %130 ]
  %132 = add i64 %131, %40
  %133 = add nsw i64 %132, 1
  %134 = getelementptr inbounds [100 x i8], [100 x i8]* %2, i64 0, i64 %133
  %135 = bitcast i8* %134 to <8 x i8>*
  %136 = load <8 x i8>, <8 x i8>* %135, align 1, !tbaa !15
  %137 = getelementptr inbounds [100 x i8], [100 x i8]* %2, i64 0, i64 %132
  %138 = bitcast i8* %137 to <8 x i8>*
  store <8 x i8> %136, <8 x i8>* %138, align 1, !tbaa !15
  %139 = add nuw i64 %131, 8
  %140 = icmp eq i64 %139, %128
  br i1 %140, label %141, label %130, !llvm.loop !19

141:                                              ; preds = %130
  %142 = icmp eq i64 %127, %128
  br i1 %142, label %152, label %143

143:                                              ; preds = %54, %118, %141
  %144 = phi i64 [ %40, %54 ], [ %119, %118 ], [ %129, %141 ]
  br label %145

145:                                              ; preds = %143, %145
  %146 = phi i64 [ %147, %145 ], [ %144, %143 ]
  %147 = add nsw i64 %146, 1
  %148 = getelementptr inbounds [100 x i8], [100 x i8]* %2, i64 0, i64 %147
  %149 = load i8, i8* %148, align 1, !tbaa !15
  %150 = getelementptr inbounds [100 x i8], [100 x i8]* %2, i64 0, i64 %146
  store i8 %149, i8* %150, align 1, !tbaa !15
  %151 = icmp eq i64 %147, %55
  br i1 %151, label %152, label %145, !llvm.loop !20

152:                                              ; preds = %145, %116, %141, %50, %37, %44
  %153 = phi i32 [ %39, %44 ], [ %39, %37 ], [ %53, %50 ], [ %53, %141 ], [ %53, %116 ], [ %53, %145 ]
  %154 = phi i32 [ %38, %44 ], [ %38, %37 ], [ %45, %50 ], [ %45, %141 ], [ %45, %116 ], [ %45, %145 ]
  %155 = add nsw i32 %154, 1
  %156 = icmp slt i32 %155, %153
  br i1 %156, label %37, label %33, !llvm.loop !22

157:                                              ; preds = %35, %157
  %158 = phi i64 [ 0, %35 ], [ %162, %157 ]
  %159 = getelementptr inbounds [100 x i8], [100 x i8]* %2, i64 0, i64 %158
  %160 = load i8, i8* %159, align 1, !tbaa !15
  call void @llvm.lifetime.start.p0i8(i64 1, i8* nonnull %1)
  store i8 %160, i8* %1, align 1, !tbaa !15
  %161 = call nonnull align 8 dereferenceable(8) %"class.std::basic_ostream"* @_ZSt16__ostream_insertIcSt11char_traitsIcEERSt13basic_ostreamIT_T0_ES6_PKS3_l(%"class.std::basic_ostream"* nonnull align 8 dereferenceable(8) @_ZSt4cout, i8* nonnull %1, i64 1)
  call void @llvm.lifetime.end.p0i8(i64 1, i8* nonnull %1)
  %162 = add nuw nsw i64 %158, 1
  %163 = icmp eq i64 %162, %36
  br i1 %163, label %164, label %157, !llvm.loop !23

164:                                              ; preds = %157, %27, %33
  %165 = load i8*, i8** bitcast (%"class.std::basic_ostream"* @_ZSt4cout to i8**), align 8, !tbaa !5
  %166 = getelementptr i8, i8* %165, i64 -24
  %167 = bitcast i8* %166 to i64*
  %168 = load i64, i64* %167, align 8
  %169 = add nsw i64 %168, 240
  %170 = getelementptr inbounds i8, i8* bitcast (%"class.std::basic_ostream"* @_ZSt4cout to i8*), i64 %169
  %171 = bitcast i8* %170 to %"class.std::ctype"**
  %172 = load %"class.std::ctype"*, %"class.std::ctype"** %171, align 8, !tbaa !8
  %173 = icmp eq %"class.std::ctype"* %172, null
  br i1 %173, label %174, label %175

174:                                              ; preds = %164
  call void @_ZSt16__throw_bad_castv() #9
  unreachable

175:                                              ; preds = %164
  %176 = getelementptr inbounds %"class.std::ctype", %"class.std::ctype"* %172, i64 0, i32 8
  %177 = load i8, i8* %176, align 8, !tbaa !13
  %178 = icmp eq i8 %177, 0
  br i1 %178, label %182, label %179

179:                                              ; preds = %175
  %180 = getelementptr inbounds %"class.std::ctype", %"class.std::ctype"* %172, i64 0, i32 9, i64 10
  %181 = load i8, i8* %180, align 1, !tbaa !15
  br label %188

182:                                              ; preds = %175
  call void @_ZNKSt5ctypeIcE13_M_widen_initEv(%"class.std::ctype"* nonnull align 8 dereferenceable(570) %172)
  %183 = bitcast %"class.std::ctype"* %172 to i8 (%"class.std::ctype"*, i8)***
  %184 = load i8 (%"class.std::ctype"*, i8)**, i8 (%"class.std::ctype"*, i8)*** %183, align 8, !tbaa !5
  %185 = getelementptr inbounds i8 (%"class.std::ctype"*, i8)*, i8 (%"class.std::ctype"*, i8)** %184, i64 6
  %186 = load i8 (%"class.std::ctype"*, i8)*, i8 (%"class.std::ctype"*, i8)** %185, align 8
  %187 = call signext i8 %186(%"class.std::ctype"* nonnull align 8 dereferenceable(570) %172, i8 signext 10)
  br label %188

188:                                              ; preds = %179, %182
  %189 = phi i8 [ %181, %179 ], [ %187, %182 ]
  %190 = call nonnull align 8 dereferenceable(8) %"class.std::basic_ostream"* @_ZNSo3putEc(%"class.std::basic_ostream"* nonnull align 8 dereferenceable(8) @_ZSt4cout, i8 signext %189)
  %191 = call nonnull align 8 dereferenceable(8) %"class.std::basic_ostream"* @_ZNSo5flushEv(%"class.std::basic_ostream"* nonnull align 8 dereferenceable(8) %190)
  call void @llvm.lifetime.end.p0i8(i64 100, i8* nonnull %3) #8
  ret i32 0
}

; Function Attrs: argmemonly mustprogress nofree nosync nounwind willreturn
declare void @llvm.lifetime.start.p0i8(i64 immarg, i8* nocapture) #4

; Function Attrs: argmemonly mustprogress nofree nounwind readonly willreturn
declare i64 @strlen(i8* nocapture) local_unnamed_addr #5

; Function Attrs: argmemonly mustprogress nofree nosync nounwind willreturn
declare void @llvm.lifetime.end.p0i8(i64 immarg, i8* nocapture) #4

declare nonnull align 8 dereferenceable(16) %"class.std::basic_istream"* @_ZNSi7getlineEPclc(%"class.std::basic_istream"* nonnull align 8 dereferenceable(16), i8*, i64, i8 signext) local_unnamed_addr #0

; Function Attrs: noreturn
declare void @_ZSt16__throw_bad_castv() local_unnamed_addr #6

declare void @_ZNKSt5ctypeIcE13_M_widen_initEv(%"class.std::ctype"* nonnull align 8 dereferenceable(570)) local_unnamed_addr #0

declare nonnull align 8 dereferenceable(8) %"class.std::basic_ostream"* @_ZSt16__ostream_insertIcSt11char_traitsIcEERSt13basic_ostreamIT_T0_ES6_PKS3_l(%"class.std::basic_ostream"* nonnull align 8 dereferenceable(8), i8*, i64) local_unnamed_addr #0

declare nonnull align 8 dereferenceable(8) %"class.std::basic_ostream"* @_ZNSo3putEc(%"class.std::basic_ostream"* nonnull align 8 dereferenceable(8), i8 signext) local_unnamed_addr #0

declare nonnull align 8 dereferenceable(8) %"class.std::basic_ostream"* @_ZNSo5flushEv(%"class.std::basic_ostream"* nonnull align 8 dereferenceable(8)) local_unnamed_addr #0

; Function Attrs: sspstrong uwtable
define internal void @_GLOBAL__sub_I_630.cpp() #7 section ".text.startup" {
  tail call void @_ZNSt8ios_base4InitC1Ev(%"class.std::ios_base::Init"* nonnull align 1 dereferenceable(1) @_ZStL8__ioinit)
  %1 = tail call i32 @__cxa_atexit(void (i8*)* bitcast (void (%"class.std::ios_base::Init"*)* @_ZNSt8ios_base4InitD1Ev to void (i8*)*), i8* getelementptr inbounds (%"class.std::ios_base::Init", %"class.std::ios_base::Init"* @_ZStL8__ioinit, i64 0, i32 0), i8* nonnull @__dso_handle) #8
  ret void
}


!llvm.module.flags = !{!0, !1, !2, !3}
!llvm.ident = !{!4}

!0 = !{i32 1, !"wchar_size", i32 4}
!1 = !{i32 7, !"PIC Level", i32 2}
!2 = !{i32 7, !"PIE Level", i32 2}
!3 = !{i32 7, !"uwtable", i32 1}
!4 = !{!"clang version 13.0.0"}
!5 = !{!6, !6, i64 0}
!6 = !{!"vtable pointer", !7, i64 0}
!7 = !{!"Simple C++ TBAA"}
!8 = !{!9, !10, i64 240}
!9 = !{!"_ZTSSt9basic_iosIcSt11char_traitsIcEE", !10, i64 216, !11, i64 224, !12, i64 225, !10, i64 232, !10, i64 240, !10, i64 248, !10, i64 256}
!10 = !{!"any pointer", !11, i64 0}
!11 = !{!"omnipotent char", !7, i64 0}
!12 = !{!"bool", !11, i64 0}
!13 = !{!14, !11, i64 56}
!14 = !{!"_ZTSSt5ctypeIcE", !10, i64 16, !12, i64 24, !10, i64 32, !10, i64 40, !10, i64 48, !11, i64 56, !11, i64 57, !11, i64 313, !11, i64 569}
!15 = !{!11, !11, i64 0}
!16 = distinct !{!16, !17, !18}
!17 = !{!"llvm.loop.mustprogress"}
!18 = !{!"llvm.loop.isvectorized", i32 1}
!19 = distinct !{!19, !17, !18}
!20 = distinct !{!20, !17, !21, !18}
!21 = !{!"llvm.loop.unroll.runtime.disable"}
!22 = distinct !{!22, !17}
!23 = distinct !{!23, !17}
